#include <math.h>
#include <stdio.h>
#include <stdlib.h>
#include <string.h>
#include <iostream>
using namespace std;

int main()
{
	int A,B,C,D,E,a,b,c,d,e,i=1,j=1,f=0;
	A=(e==1);
	B=(b==2);
	C=(a==5);
	D=(c!=1);
	E=(d==1);
	for(i=1;i<=5;i++)
	{
		for(j=1;j<=5;j++)
		{
			c=i;
			d=j;
			if(i==j) continue;
			if((c==1)||(c==2))
			{
				a=5;
				e=4;
			}
			if((e==1)||(e==2))
			{
				d=1;
			}
			if((a==1)||(a==2))
			{
				e=1;
			}
			b=2;
			if(a!=b&&a!=c&&a!=d&&a!=e&&b!=c&&b!=d&&b!=e&&c!=d&&c!=e&&d!=e)
			{
				cout<<a<<" "<<b<<" "<<c<<" "<<d<<" "<<e<<endl;
				f++;
			}
			if(f!=0) break;
		}
		if(f!=0) break;
	}
	return 0;
}
