; ModuleID = '41/315.cpp'
source_filename = "41/315.cpp"
target datalayout = "e-m:e-p270:32:32-p271:32:32-p272:64:64-i64:64-f80:128-n8:16:32:64-S128"
target triple = "x86_64-pc-linux-gnu"

%"class.std::ios_base::Init" = type { i8 }
%"class.std::basic_ostream" = type { i32 (...)**, %"class.std::basic_ios" }
%"class.std::basic_ios" = type { %"class.std::ios_base", %"class.std::basic_ostream"*, i8, i8, %"class.std::basic_streambuf"*, %"class.std::ctype"*, %"class.std::num_put"*, %"class.std::num_get"* }
%"class.std::ios_base" = type { i32 (...)**, i64, i64, i32, i32, i32, %"struct.std::ios_base::_Callback_list"*, %"struct.std::ios_base::_Words", [8 x %"struct.std::ios_base::_Words"], i32, %"struct.std::ios_base::_Words"*, %"class.std::locale" }
%"struct.std::ios_base::_Callback_list" = type { %"struct.std::ios_base::_Callback_list"*, void (i32, %"class.std::ios_base"*, i32)*, i32, i32 }
%"struct.std::ios_base::_Words" = type { i8*, i64 }
%"class.std::locale" = type { %"class.std::locale::_Impl"* }
%"class.std::locale::_Impl" = type { i32, %"class.std::locale::facet"**, i64, %"class.std::locale::facet"**, i8** }
%"class.std::locale::facet" = type <{ i32 (...)**, i32, [4 x i8] }>
%"class.std::basic_streambuf" = type { i32 (...)**, i8*, i8*, i8*, i8*, i8*, i8*, %"class.std::locale" }
%"class.std::ctype" = type <{ %"class.std::locale::facet.base", [4 x i8], %struct.__locale_struct*, i8, [7 x i8], i32*, i32*, i16*, i8, [256 x i8], [256 x i8], i8, [6 x i8] }>
%"class.std::locale::facet.base" = type <{ i32 (...)**, i32 }>
%struct.__locale_struct = type { [13 x %struct.__locale_data*], i16*, i32*, i32*, [13 x i8*] }
%struct.__locale_data = type opaque
%"class.std::num_put" = type { %"class.std::locale::facet.base", [4 x i8] }
%"class.std::num_get" = type { %"class.std::locale::facet.base", [4 x i8] }

@_ZStL8__ioinit = internal global %"class.std::ios_base::Init" zeroinitializer, align 1
@__dso_handle = external hidden global i8
@_ZSt4cout = external dso_local global %"class.std::basic_ostream", align 8
@.str = private unnamed_addr constant [2 x i8] c" \00", align 1
@llvm.global_ctors = appending global [1 x { i32, void ()*, i8* }] [{ i32, void ()*, i8* } { i32 65535, void ()* @_GLOBAL__sub_I_315.cpp, i8* null }]

; Function Attrs: noinline uwtable
define internal void @__cxx_global_var_init() #0 section ".text.startup" {
  call void @_ZNSt8ios_base4InitC1Ev(%"class.std::ios_base::Init"* @_ZStL8__ioinit)
  %1 = call i32 @__cxa_atexit(void (i8*)* bitcast (void (%"class.std::ios_base::Init"*)* @_ZNSt8ios_base4InitD1Ev to void (i8*)*), i8* getelementptr inbounds (%"class.std::ios_base::Init", %"class.std::ios_base::Init"* @_ZStL8__ioinit, i32 0, i32 0), i8* @__dso_handle) #3
  ret void
}

declare dso_local void @_ZNSt8ios_base4InitC1Ev(%"class.std::ios_base::Init"*) unnamed_addr #1

; Function Attrs: nounwind
declare dso_local void @_ZNSt8ios_base4InitD1Ev(%"class.std::ios_base::Init"*) unnamed_addr #2

; Function Attrs: nounwind
declare dso_local i32 @__cxa_atexit(void (i8*)*, i8*, i8*) #3

; Function Attrs: noinline norecurse uwtable
define dso_local i32 @main() #4 {
  %1 = alloca i32, align 4
  %2 = alloca i32, align 4
  %3 = alloca i32, align 4
  %4 = alloca i32, align 4
  %5 = alloca i32, align 4
  %6 = alloca i32, align 4
  %7 = alloca i32, align 4
  %8 = alloca i32, align 4
  %9 = alloca i32, align 4
  %10 = alloca i32, align 4
  %11 = alloca i32, align 4
  %12 = alloca i32, align 4
  %13 = alloca i32, align 4
  %14 = alloca i32, align 4
  store i32 0, i32* %1, align 4
  store i32 1, i32* %12, align 4
  store i32 1, i32* %13, align 4
  store i32 0, i32* %14, align 4
  %15 = load i32, i32* %11, align 4
  %16 = icmp eq i32 %15, 1
  %17 = zext i1 %16 to i32
  store i32 %17, i32* %2, align 4
  %18 = load i32, i32* %8, align 4
  %19 = icmp eq i32 %18, 2
  %20 = zext i1 %19 to i32
  store i32 %20, i32* %3, align 4
  %21 = load i32, i32* %7, align 4
  %22 = icmp eq i32 %21, 5
  %23 = zext i1 %22 to i32
  store i32 %23, i32* %4, align 4
  %24 = load i32, i32* %9, align 4
  %25 = icmp ne i32 %24, 1
  %26 = zext i1 %25 to i32
  store i32 %26, i32* %5, align 4
  %27 = load i32, i32* %10, align 4
  %28 = icmp eq i32 %27, 1
  %29 = zext i1 %28 to i32
  store i32 %29, i32* %6, align 4
  store i32 1, i32* %12, align 4
  br label %30

30:                                               ; preds = %136, %0
  %31 = load i32, i32* %12, align 4
  %32 = icmp sle i32 %31, 5
  br i1 %32, label %33, label %139

33:                                               ; preds = %30
  store i32 1, i32* %13, align 4
  br label %34

34:                                               ; preds = %128, %33
  %35 = load i32, i32* %13, align 4
  %36 = icmp sle i32 %35, 5
  br i1 %36, label %37, label %131

37:                                               ; preds = %34
  %38 = load i32, i32* %12, align 4
  store i32 %38, i32* %9, align 4
  %39 = load i32, i32* %13, align 4
  store i32 %39, i32* %10, align 4
  %40 = load i32, i32* %12, align 4
  %41 = load i32, i32* %13, align 4
  %42 = icmp eq i32 %40, %41
  br i1 %42, label %43, label %44

43:                                               ; preds = %37
  br label %128

44:                                               ; preds = %37
  %45 = load i32, i32* %9, align 4
  %46 = icmp eq i32 %45, 1
  br i1 %46, label %50, label %47

47:                                               ; preds = %44
  %48 = load i32, i32* %9, align 4
  %49 = icmp eq i32 %48, 2
  br i1 %49, label %50, label %51

50:                                               ; preds = %47, %44
  store i32 5, i32* %7, align 4
  store i32 4, i32* %11, align 4
  br label %51

51:                                               ; preds = %50, %47
  %52 = load i32, i32* %11, align 4
  %53 = icmp eq i32 %52, 1
  br i1 %53, label %57, label %54

54:                                               ; preds = %51
  %55 = load i32, i32* %11, align 4
  %56 = icmp eq i32 %55, 2
  br i1 %56, label %57, label %58

57:                                               ; preds = %54, %51
  store i32 1, i32* %10, align 4
  br label %58

58:                                               ; preds = %57, %54
  %59 = load i32, i32* %7, align 4
  %60 = icmp eq i32 %59, 1
  br i1 %60, label %64, label %61

61:                                               ; preds = %58
  %62 = load i32, i32* %7, align 4
  %63 = icmp eq i32 %62, 2
  br i1 %63, label %64, label %65

64:                                               ; preds = %61, %58
  store i32 1, i32* %11, align 4
  br label %65

65:                                               ; preds = %64, %61
  store i32 2, i32* %8, align 4
  %66 = load i32, i32* %7, align 4
  %67 = load i32, i32* %8, align 4
  %68 = icmp ne i32 %66, %67
  br i1 %68, label %69, label %123

69:                                               ; preds = %65
  %70 = load i32, i32* %7, align 4
  %71 = load i32, i32* %9, align 4
  %72 = icmp ne i32 %70, %71
  br i1 %72, label %73, label %123

73:                                               ; preds = %69
  %74 = load i32, i32* %7, align 4
  %75 = load i32, i32* %10, align 4
  %76 = icmp ne i32 %74, %75
  br i1 %76, label %77, label %123

77:                                               ; preds = %73
  %78 = load i32, i32* %7, align 4
  %79 = load i32, i32* %11, align 4
  %80 = icmp ne i32 %78, %79
  br i1 %80, label %81, label %123

81:                                               ; preds = %77
  %82 = load i32, i32* %8, align 4
  %83 = load i32, i32* %9, align 4
  %84 = icmp ne i32 %82, %83
  br i1 %84, label %85, label %123

85:                                               ; preds = %81
  %86 = load i32, i32* %8, align 4
  %87 = load i32, i32* %10, align 4
  %88 = icmp ne i32 %86, %87
  br i1 %88, label %89, label %123

89:                                               ; preds = %85
  %90 = load i32, i32* %8, align 4
  %91 = load i32, i32* %11, align 4
  %92 = icmp ne i32 %90, %91
  br i1 %92, label %93, label %123

93:                                               ; preds = %89
  %94 = load i32, i32* %9, align 4
  %95 = load i32, i32* %10, align 4
  %96 = icmp ne i32 %94, %95
  br i1 %96, label %97, label %123

97:                                               ; preds = %93
  %98 = load i32, i32* %9, align 4
  %99 = load i32, i32* %11, align 4
  %100 = icmp ne i32 %98, %99
  br i1 %100, label %101, label %123

101:                                              ; preds = %97
  %102 = load i32, i32* %10, align 4
  %103 = load i32, i32* %11, align 4
  %104 = icmp ne i32 %102, %103
  br i1 %104, label %105, label %123

105:                                              ; preds = %101
  %106 = load i32, i32* %7, align 4
  %107 = call dereferenceable(272) %"class.std::basic_ostream"* @_ZNSolsEi(%"class.std::basic_ostream"* @_ZSt4cout, i32 %106)
  %108 = call dereferenceable(272) %"class.std::basic_ostream"* @_ZStlsISt11char_traitsIcEERSt13basic_ostreamIcT_ES5_PKc(%"class.std::basic_ostream"* dereferenceable(272) %107, i8* getelementptr inbounds ([2 x i8], [2 x i8]* @.str, i64 0, i64 0))
  %109 = load i32, i32* %8, align 4
  %110 = call dereferenceable(272) %"class.std::basic_ostream"* @_ZNSolsEi(%"class.std::basic_ostream"* %108, i32 %109)
  %111 = call dereferenceable(272) %"class.std::basic_ostream"* @_ZStlsISt11char_traitsIcEERSt13basic_ostreamIcT_ES5_PKc(%"class.std::basic_ostream"* dereferenceable(272) %110, i8* getelementptr inbounds ([2 x i8], [2 x i8]* @.str, i64 0, i64 0))
  %112 = load i32, i32* %9, align 4
  %113 = call dereferenceable(272) %"class.std::basic_ostream"* @_ZNSolsEi(%"class.std::basic_ostream"* %111, i32 %112)
  %114 = call dereferenceable(272) %"class.std::basic_ostream"* @_ZStlsISt11char_traitsIcEERSt13basic_ostreamIcT_ES5_PKc(%"class.std::basic_ostream"* dereferenceable(272) %113, i8* getelementptr inbounds ([2 x i8], [2 x i8]* @.str, i64 0, i64 0))
  %115 = load i32, i32* %10, align 4
  %116 = call dereferenceable(272) %"class.std::basic_ostream"* @_ZNSolsEi(%"class.std::basic_ostream"* %114, i32 %115)
  %117 = call dereferenceable(272) %"class.std::basic_ostream"* @_ZStlsISt11char_traitsIcEERSt13basic_ostreamIcT_ES5_PKc(%"class.std::basic_ostream"* dereferenceable(272) %116, i8* getelementptr inbounds ([2 x i8], [2 x i8]* @.str, i64 0, i64 0))
  %118 = load i32, i32* %11, align 4
  %119 = call dereferenceable(272) %"class.std::basic_ostream"* @_ZNSolsEi(%"class.std::basic_ostream"* %117, i32 %118)
  %120 = call dereferenceable(272) %"class.std::basic_ostream"* @_ZNSolsEPFRSoS_E(%"class.std::basic_ostream"* %119, %"class.std::basic_ostream"* (%"class.std::basic_ostream"*)* @_ZSt4endlIcSt11char_traitsIcEERSt13basic_ostreamIT_T0_ES6_)
  %121 = load i32, i32* %14, align 4
  %122 = add nsw i32 %121, 1
  store i32 %122, i32* %14, align 4
  br label %123

123:                                              ; preds = %105, %101, %97, %93, %89, %85, %81, %77, %73, %69, %65
  %124 = load i32, i32* %14, align 4
  %125 = icmp ne i32 %124, 0
  br i1 %125, label %126, label %127

126:                                              ; preds = %123
  br label %131

127:                                              ; preds = %123
  br label %128

128:                                              ; preds = %127, %43
  %129 = load i32, i32* %13, align 4
  %130 = add nsw i32 %129, 1
  store i32 %130, i32* %13, align 4
  br label %34

131:                                              ; preds = %126, %34
  %132 = load i32, i32* %14, align 4
  %133 = icmp ne i32 %132, 0
  br i1 %133, label %134, label %135

134:                                              ; preds = %131
  br label %139

135:                                              ; preds = %131
  br label %136

136:                                              ; preds = %135
  %137 = load i32, i32* %12, align 4
  %138 = add nsw i32 %137, 1
  store i32 %138, i32* %12, align 4
  br label %30

139:                                              ; preds = %134, %30
  ret i32 0
}

declare dso_local dereferenceable(272) %"class.std::basic_ostream"* @_ZStlsISt11char_traitsIcEERSt13basic_ostreamIcT_ES5_PKc(%"class.std::basic_ostream"* dereferenceable(272), i8*) #1

declare dso_local dereferenceable(272) %"class.std::basic_ostream"* @_ZNSolsEi(%"class.std::basic_ostream"*, i32) #1

declare dso_local dereferenceable(272) %"class.std::basic_ostream"* @_ZNSolsEPFRSoS_E(%"class.std::basic_ostream"*, %"class.std::basic_ostream"* (%"class.std::basic_ostream"*)*) #1

declare dso_local dereferenceable(272) %"class.std::basic_ostream"* @_ZSt4endlIcSt11char_traitsIcEERSt13basic_ostreamIT_T0_ES6_(%"class.std::basic_ostream"* dereferenceable(272)) #1

; Function Attrs: noinline uwtable
define internal void @_GLOBAL__sub_I_315.cpp() #0 section ".text.startup" {
  call void @__cxx_global_var_init()
  ret void
}


!llvm.module.flags = !{!0}
!llvm.ident = !{!1}

!0 = !{i32 1, !"wchar_size", i32 4}
!1 = !{!"clang version 10.0.0-4ubuntu1 "}
